target datalayout = "e-m:e-p270:32:32-p271:32:32-p272:64:64-i64:64-i128:128-f80:128-n8:16:32:64-S128"
target triple = "x86_64-pc-linux-gnu"

%"struct.llvm::itanium_demangle::AbstractManglingParser" = type { ptr, ptr, %"class.llvm::itanium_demangle::PODSmallVector", %"class.llvm::itanium_demangle::PODSmallVector", %"class.llvm::itanium_demangle::PODSmallVector.0", %"class.llvm::itanium_demangle::PODSmallVector.1", %"class.llvm::itanium_demangle::PODSmallVector.2", i8, i8, i8, i64, [3 x i32], [12 x i8], %"class.(anonymous namespace)::DefaultAllocator" }
%"class.llvm::itanium_demangle::PODSmallVector" = type { ptr, ptr, ptr, [32 x ptr] }
%"class.llvm::itanium_demangle::PODSmallVector.0" = type { ptr, ptr, ptr, [8 x ptr] }
%"class.llvm::itanium_demangle::PODSmallVector.1" = type { ptr, ptr, ptr, [4 x ptr] }
%"class.llvm::itanium_demangle::PODSmallVector.2" = type { ptr, ptr, ptr, [4 x ptr] }
%"class.(anonymous namespace)::DefaultAllocator" = type { %"class.(anonymous namespace)::BumpPointerAllocator" }
%"class.(anonymous namespace)::BumpPointerAllocator" = type { [4096 x i8], ptr, [8 x i8] }
%"struct.(anonymous namespace)::BumpPointerAllocator::BlockMeta" = type { ptr, i64 }

; Function Attrs: mustprogress nounwind uwtable
define internal void @_ZN12_GLOBAL__N_120BumpPointerAllocator5resetEv(ptr noundef nonnull align 16 dereferenceable(4104) %0) #0 align 2 {
  %2 = alloca ptr, align 8
  %3 = alloca ptr, align 8
  store ptr %0, ptr %2, align 8
  %4 = load ptr, ptr %2, align 8
  br label %5

5:                                                ; preds = %23, %1
  %6 = getelementptr inbounds nuw %"class.(anonymous namespace)::BumpPointerAllocator", ptr %4, i32 0, i32 1
  %7 = load ptr, ptr %6, align 16
  %8 = icmp ne ptr %7, null
  br i1 %8, label %9, label %24

9:                                                ; preds = %5
  %10 = getelementptr inbounds nuw %"class.(anonymous namespace)::BumpPointerAllocator", ptr %4, i32 0, i32 1
  %11 = load ptr, ptr %10, align 16
  store ptr %11, ptr %3, align 8
  %12 = getelementptr inbounds nuw %"class.(anonymous namespace)::BumpPointerAllocator", ptr %4, i32 0, i32 1
  %13 = load ptr, ptr %12, align 16
  %14 = getelementptr inbounds nuw %"struct.(anonymous namespace)::BumpPointerAllocator::BlockMeta", ptr %13, i32 0, i32 0
  %15 = load ptr, ptr %14, align 8
  %16 = getelementptr inbounds nuw %"class.(anonymous namespace)::BumpPointerAllocator", ptr %4, i32 0, i32 1
  store ptr %15, ptr %16, align 16
  %17 = load ptr, ptr %3, align 8
  %18 = getelementptr inbounds nuw %"class.(anonymous namespace)::BumpPointerAllocator", ptr %4, i32 0, i32 0
  %19 = getelementptr inbounds [4096 x i8], ptr %18, i64 0, i64 0
  %20 = icmp ne ptr %17, %19
  br i1 %20, label %21, label %23

21:                                               ; preds = %9
  %22 = load ptr, ptr %3, align 8
  call void @free(ptr noundef %22) #14
  br label %23

23:                                               ; preds = %21, %9
  br label %5, !llvm.loop !12

24:                                               ; preds = %5
  %25 = getelementptr inbounds nuw %"class.(anonymous namespace)::BumpPointerAllocator", ptr %4, i32 0, i32 0
  %26 = getelementptr inbounds [4096 x i8], ptr %25, i64 0, i64 0
  %27 = getelementptr inbounds nuw %"struct.(anonymous namespace)::BumpPointerAllocator::BlockMeta", ptr %26, i32 0, i32 0
  store ptr null, ptr %27, align 16
  %28 = getelementptr inbounds nuw %"struct.(anonymous namespace)::BumpPointerAllocator::BlockMeta", ptr %26, i32 0, i32 1
  store i64 0, ptr %28, align 8
  %29 = getelementptr inbounds nuw %"class.(anonymous namespace)::BumpPointerAllocator", ptr %4, i32 0, i32 1
  store ptr %26, ptr %29, align 16
  ret void
}

; Function Attrs: mustprogress nounwind uwtable
define linkonce_odr hidden noundef zeroext i1 @_ZNK4llvm16itanium_demangle14PODSmallVectorIPNS0_4NodeELm32EE8isInlineEv(ptr noundef nonnull align 8 dereferenceable(280) %0) #0 comdat align 2 {
  %2 = alloca ptr, align 8
  store ptr %0, ptr %2, align 8
  %3 = load ptr, ptr %2, align 8
  %4 = getelementptr inbounds nuw %"class.llvm::itanium_demangle::PODSmallVector", ptr %3, i32 0, i32 0
  %5 = load ptr, ptr %4, align 8
  %6 = getelementptr inbounds nuw %"class.llvm::itanium_demangle::PODSmallVector", ptr %3, i32 0, i32 3
  %7 = getelementptr inbounds [32 x ptr], ptr %6, i64 0, i64 0
  %8 = icmp eq ptr %5, %7
  ret i1 %8
}

; Function Attrs: mustprogress nounwind uwtable
define linkonce_odr hidden noundef zeroext i1 @_ZNK4llvm16itanium_demangle14PODSmallVectorIPNS0_4NodeELm8EE8isInlineEv(ptr noundef nonnull align 8 dereferenceable(88) %0) #0 comdat align 2 {
  %2 = alloca ptr, align 8
  store ptr %0, ptr %2, align 8
  %3 = load ptr, ptr %2, align 8
  %4 = getelementptr inbounds nuw %"class.llvm::itanium_demangle::PODSmallVector.0", ptr %3, i32 0, i32 0
  %5 = load ptr, ptr %4, align 8
  %6 = getelementptr inbounds nuw %"class.llvm::itanium_demangle::PODSmallVector.0", ptr %3, i32 0, i32 3
  %7 = getelementptr inbounds [8 x ptr], ptr %6, i64 0, i64 0
  %8 = icmp eq ptr %5, %7
  ret i1 %8
}

; Function Attrs: mustprogress nounwind uwtable
define linkonce_odr hidden noundef zeroext i1 @_ZNK4llvm16itanium_demangle14PODSmallVectorIPNS1_IPNS0_4NodeELm8EEELm4EE8isInlineEv(ptr noundef nonnull align 8 dereferenceable(56) %0) #0 comdat align 2 {
  %2 = alloca ptr, align 8
  store ptr %0, ptr %2, align 8
  %3 = load ptr, ptr %2, align 8
  %4 = getelementptr inbounds nuw %"class.llvm::itanium_demangle::PODSmallVector.1", ptr %3, i32 0, i32 0
  %5 = load ptr, ptr %4, align 8
  %6 = getelementptr inbounds nuw %"class.llvm::itanium_demangle::PODSmallVector.1", ptr %3, i32 0, i32 3
  %7 = getelementptr inbounds [4 x ptr], ptr %6, i64 0, i64 0
  %8 = icmp eq ptr %5, %7
  ret i1 %8
}

; Function Attrs: mustprogress nounwind uwtable
define linkonce_odr hidden noundef zeroext i1 @_ZNK4llvm16itanium_demangle14PODSmallVectorIPNS0_24ForwardTemplateReferenceELm4EE8isInlineEv(ptr noundef nonnull align 8 dereferenceable(56) %0) #0 comdat align 2 {
  %2 = alloca ptr, align 8
  store ptr %0, ptr %2, align 8
  %3 = load ptr, ptr %2, align 8
  %4 = getelementptr inbounds nuw %"class.llvm::itanium_demangle::PODSmallVector.2", ptr %3, i32 0, i32 0
  %5 = load ptr, ptr %4, align 8
  %6 = getelementptr inbounds nuw %"class.llvm::itanium_demangle::PODSmallVector.2", ptr %3, i32 0, i32 3
  %7 = getelementptr inbounds [4 x ptr], ptr %6, i64 0, i64 0
  %8 = icmp eq ptr %5, %7
  ret i1 %8
}

; Function Attrs: mustprogress nounwind uwtable
define internal void @_ZN12_GLOBAL__N_120BumpPointerAllocatorD2Ev(ptr noundef nonnull align 16 dereferenceable(4104) %0) unnamed_addr #0 align 2 {
  %2 = alloca ptr, align 8
  store ptr %0, ptr %2, align 8
  %3 = load ptr, ptr %2, align 8
  call void @_ZN12_GLOBAL__N_120BumpPointerAllocator5resetEv(ptr noundef nonnull align 16 dereferenceable(4104) %3)
  ret void
}

; Function Attrs: mustprogress nounwind uwtable
define linkonce_odr hidden void @_ZN4llvm16itanium_demangle14PODSmallVectorIPNS0_4NodeELm32EED2Ev(ptr noundef nonnull align 8 dereferenceable(280) %0) unnamed_addr #0 comdat align 2 {
  %2 = alloca ptr, align 8
  store ptr %0, ptr %2, align 8
  %3 = load ptr, ptr %2, align 8
  %4 = call noundef zeroext i1 @_ZNK4llvm16itanium_demangle14PODSmallVectorIPNS0_4NodeELm32EE8isInlineEv(ptr noundef nonnull align 8 dereferenceable(280) %3)
  br i1 %4, label %8, label %5

5:                                                ; preds = %1
  %6 = getelementptr inbounds nuw %"class.llvm::itanium_demangle::PODSmallVector", ptr %3, i32 0, i32 0
  %7 = load ptr, ptr %6, align 8
  call void @free(ptr noundef %7) #14
  br label %8

8:                                                ; preds = %5, %1
  ret void
}

; Function Attrs: mustprogress nounwind uwtable
define linkonce_odr hidden void @_ZN4llvm16itanium_demangle14PODSmallVectorIPNS0_4NodeELm8EED2Ev(ptr noundef nonnull align 8 dereferenceable(88) %0) unnamed_addr #0 comdat align 2 {
  %2 = alloca ptr, align 8
  store ptr %0, ptr %2, align 8
  %3 = load ptr, ptr %2, align 8
  %4 = call noundef zeroext i1 @_ZNK4llvm16itanium_demangle14PODSmallVectorIPNS0_4NodeELm8EE8isInlineEv(ptr noundef nonnull align 8 dereferenceable(88) %3)
  br i1 %4, label %8, label %5

5:                                                ; preds = %1
  %6 = getelementptr inbounds nuw %"class.llvm::itanium_demangle::PODSmallVector.0", ptr %3, i32 0, i32 0
  %7 = load ptr, ptr %6, align 8
  call void @free(ptr noundef %7) #14
  br label %8

8:                                                ; preds = %5, %1
  ret void
}

; Function Attrs: mustprogress nounwind uwtable
define linkonce_odr hidden void @_ZN4llvm16itanium_demangle14PODSmallVectorIPNS1_IPNS0_4NodeELm8EEELm4EED2Ev(ptr noundef nonnull align 8 dereferenceable(56) %0) unnamed_addr #0 comdat align 2 {
  %2 = alloca ptr, align 8
  store ptr %0, ptr %2, align 8
  %3 = load ptr, ptr %2, align 8
  %4 = call noundef zeroext i1 @_ZNK4llvm16itanium_demangle14PODSmallVectorIPNS1_IPNS0_4NodeELm8EEELm4EE8isInlineEv(ptr noundef nonnull align 8 dereferenceable(56) %3)
  br i1 %4, label %8, label %5

5:                                                ; preds = %1
  %6 = getelementptr inbounds nuw %"class.llvm::itanium_demangle::PODSmallVector.1", ptr %3, i32 0, i32 0
  %7 = load ptr, ptr %6, align 8
  call void @free(ptr noundef %7) #14
  br label %8

8:                                                ; preds = %5, %1
  ret void
}

; Function Attrs: mustprogress nounwind uwtable
define linkonce_odr hidden void @_ZN4llvm16itanium_demangle14PODSmallVectorIPNS0_24ForwardTemplateReferenceELm4EED2Ev(ptr noundef nonnull align 8 dereferenceable(56) %0) unnamed_addr #0 comdat align 2 {
  %2 = alloca ptr, align 8
  store ptr %0, ptr %2, align 8
  %3 = load ptr, ptr %2, align 8
  %4 = call noundef zeroext i1 @_ZNK4llvm16itanium_demangle14PODSmallVectorIPNS0_24ForwardTemplateReferenceELm4EE8isInlineEv(ptr noundef nonnull align 8 dereferenceable(56) %3)
  br i1 %4, label %8, label %5

5:                                                ; preds = %1
  %6 = getelementptr inbounds nuw %"class.llvm::itanium_demangle::PODSmallVector.2", ptr %3, i32 0, i32 0
  %7 = load ptr, ptr %6, align 8
  call void @free(ptr noundef %7) #14
  br label %8

8:                                                ; preds = %5, %1
  ret void
}

; Function Attrs: mustprogress nounwind uwtable
define internal void @_ZN12_GLOBAL__N_116DefaultAllocatorD2Ev(ptr noundef nonnull align 16 dereferenceable(4112) %0) unnamed_addr #0 align 2 {
  %2 = alloca ptr, align 8
  store ptr %0, ptr %2, align 8
  %3 = load ptr, ptr %2, align 8
  %4 = getelementptr inbounds nuw %"class.(anonymous namespace)::DefaultAllocator", ptr %3, i32 0, i32 0
  call void @_ZN12_GLOBAL__N_120BumpPointerAllocatorD2Ev(ptr noundef nonnull align 16 dereferenceable(4104) %4) #14
  ret void
}

; Function Attrs: mustprogress nounwind uwtable
define internal void @_ZN4llvm16itanium_demangle22AbstractManglingParserINS0_14ManglingParserIN12_GLOBAL__N_116DefaultAllocatorEEES4_ED2Ev(ptr noundef nonnull align 16 dereferenceable(4928) %0) unnamed_addr #0 align 2 {
  %2 = alloca ptr, align 8
  store ptr %0, ptr %2, align 8
  %3 = load ptr, ptr %2, align 8
  %4 = getelementptr inbounds nuw %"struct.llvm::itanium_demangle::AbstractManglingParser", ptr %3, i32 0, i32 13
  call void @_ZN12_GLOBAL__N_116DefaultAllocatorD2Ev(ptr noundef nonnull align 16 dereferenceable(4112) %4) #14
  %5 = getelementptr inbounds nuw %"struct.llvm::itanium_demangle::AbstractManglingParser", ptr %3, i32 0, i32 6
  call void @_ZN4llvm16itanium_demangle14PODSmallVectorIPNS0_24ForwardTemplateReferenceELm4EED2Ev(ptr noundef nonnull align 8 dereferenceable(56) %5) #14
  %6 = getelementptr inbounds nuw %"struct.llvm::itanium_demangle::AbstractManglingParser", ptr %3, i32 0, i32 5
  call void @_ZN4llvm16itanium_demangle14PODSmallVectorIPNS1_IPNS0_4NodeELm8EEELm4EED2Ev(ptr noundef nonnull align 8 dereferenceable(56) %6) #14
  %7 = getelementptr inbounds nuw %"struct.llvm::itanium_demangle::AbstractManglingParser", ptr %3, i32 0, i32 4
  call void @_ZN4llvm16itanium_demangle14PODSmallVectorIPNS0_4NodeELm8EED2Ev(ptr noundef nonnull align 8 dereferenceable(88) %7) #14
  %8 = getelementptr inbounds nuw %"struct.llvm::itanium_demangle::AbstractManglingParser", ptr %3, i32 0, i32 3
  call void @_ZN4llvm16itanium_demangle14PODSmallVectorIPNS0_4NodeELm32EED2Ev(ptr noundef nonnull align 8 dereferenceable(280) %8) #14
  %9 = getelementptr inbounds nuw %"struct.llvm::itanium_demangle::AbstractManglingParser", ptr %3, i32 0, i32 2
  call void @_ZN4llvm16itanium_demangle14PODSmallVectorIPNS0_4NodeELm32EED2Ev(ptr noundef nonnull align 8 dereferenceable(280) %9) #14
  ret void
}

; Function Attrs: mustprogress nounwind uwtable
define internal void @_ZN4llvm16itanium_demangle14ManglingParserIN12_GLOBAL__N_116DefaultAllocatorEED2Ev(ptr noundef nonnull align 16 dereferenceable(4928) %0) unnamed_addr #0 align 2 {
  %2 = alloca ptr, align 8
  store ptr %0, ptr %2, align 8
  %3 = load ptr, ptr %2, align 8
  call void @_ZN4llvm16itanium_demangle22AbstractManglingParserINS0_14ManglingParserIN12_GLOBAL__N_116DefaultAllocatorEEES4_ED2Ev(ptr noundef nonnull align 16 dereferenceable(4928) %3) #14
  ret void
}