; Function Attrs: mustprogress nounwind uwtable
define internal fastcc void @_ZN4llvm16itanium_demangle14ManglingParserIN12_GLOBAL__N_116DefaultAllocatorEED2Ev(ptr noundef nonnull align 16 dereferenceable(4928) %0) unnamed_addr #1 align 2 {
  %2 = getelementptr inbounds nuw i8, ptr %0, i64 816
  %3 = getelementptr inbounds i8, ptr %0, i64 4912
  %4 = load ptr, ptr %3, align 16
  %.not4.i.i.i.i = icmp eq ptr %4, null
  br i1 %.not4.i.i.i.i, label %_ZN12_GLOBAL__N_116DefaultAllocatorD2Ev.exit.i, label %.lr.ph.i.i.i.i

.lr.ph.i.i.i.i:                                   ; preds = %1, %8
  %5 = phi ptr [ %9, %8 ], [ %4, %1 ]
  %6 = load ptr, ptr %5, align 8
  store ptr %6, ptr %3, align 16
  %.not3.i.i.i.i = icmp eq ptr %5, %2
  br i1 %.not3.i.i.i.i, label %8, label %7

7:                                                ; preds = %.lr.ph.i.i.i.i
  tail call void @free(ptr noundef nonnull %5) #20
  %.pre.i.i.i.i = load ptr, ptr %3, align 16
  br label %8

8:                                                ; preds = %7, %.lr.ph.i.i.i.i
  %9 = phi ptr [ %.pre.i.i.i.i, %7 ], [ %6, %.lr.ph.i.i.i.i ]
  %.not.i.i.i.i = icmp eq ptr %9, null
  br i1 %.not.i.i.i.i, label %_ZN12_GLOBAL__N_116DefaultAllocatorD2Ev.exit.i, label %.lr.ph.i.i.i.i, !llvm.loop !8

_ZN12_GLOBAL__N_116DefaultAllocatorD2Ev.exit.i:   ; preds = %8, %1
  tail call void @llvm.memset.p0.i64(ptr noundef nonnull align 16 dereferenceable(16) %2, i8 0, i64 16, i1 false)
  store ptr %2, ptr %3, align 16
  %10 = getelementptr inbounds nuw i8, ptr %0, i64 720
  %11 = load ptr, ptr %10, align 16
  %12 = getelementptr inbounds i8, ptr %0, i64 744
  %13 = icmp eq ptr %11, %12
  br i1 %13, label %_ZN4llvm16itanium_demangle14PODSmallVectorIPNS0_24ForwardTemplateReferenceELm4EED2Ev.exit.i, label %14

14:                                               ; preds = %_ZN12_GLOBAL__N_116DefaultAllocatorD2Ev.exit.i
  tail call void @free(ptr noundef %11) #20
  br label %_ZN4llvm16itanium_demangle14PODSmallVectorIPNS0_24ForwardTemplateReferenceELm4EED2Ev.exit.i

_ZN4llvm16itanium_demangle14PODSmallVectorIPNS0_24ForwardTemplateReferenceELm4EED2Ev.exit.i: ; preds = %14, %_ZN12_GLOBAL__N_116DefaultAllocatorD2Ev.exit.i
  %15 = getelementptr inbounds nuw i8, ptr %0, i64 664
  %16 = load ptr, ptr %15, align 8
  %17 = getelementptr inbounds i8, ptr %0, i64 688
  %18 = icmp eq ptr %16, %17
  br i1 %18, label %_ZN4llvm16itanium_demangle14PODSmallVectorIPNS1_IPNS0_4NodeELm8EEELm4EED2Ev.exit.i, label %19

19:                                               ; preds = %_ZN4llvm16itanium_demangle14PODSmallVectorIPNS0_24ForwardTemplateReferenceELm4EED2Ev.exit.i
  tail call void @free(ptr noundef %16) #20
  br label %_ZN4llvm16itanium_demangle14PODSmallVectorIPNS1_IPNS0_4NodeELm8EEELm4EED2Ev.exit.i

_ZN4llvm16itanium_demangle14PODSmallVectorIPNS1_IPNS0_4NodeELm8EEELm4EED2Ev.exit.i: ; preds = %19, %_ZN4llvm16itanium_demangle14PODSmallVectorIPNS0_24ForwardTemplateReferenceELm4EED2Ev.exit.i
  %20 = getelementptr inbounds nuw i8, ptr %0, i64 576
  %21 = load ptr, ptr %20, align 16
  %22 = getelementptr inbounds i8, ptr %0, i64 600
  %23 = icmp eq ptr %21, %22
  br i1 %23, label %_ZN4llvm16itanium_demangle14PODSmallVectorIPNS0_4NodeELm8EED2Ev.exit.i, label %24

24:                                               ; preds = %_ZN4llvm16itanium_demangle14PODSmallVectorIPNS1_IPNS0_4NodeELm8EEELm4EED2Ev.exit.i
  tail call void @free(ptr noundef %21) #20
  br label %_ZN4llvm16itanium_demangle14PODSmallVectorIPNS0_4NodeELm8EED2Ev.exit.i

_ZN4llvm16itanium_demangle14PODSmallVectorIPNS0_4NodeELm8EED2Ev.exit.i: ; preds = %24, %_ZN4llvm16itanium_demangle14PODSmallVectorIPNS1_IPNS0_4NodeELm8EEELm4EED2Ev.exit.i
  %25 = getelementptr inbounds nuw i8, ptr %0, i64 296
  %26 = load ptr, ptr %25, align 8
  %27 = getelementptr inbounds i8, ptr %0, i64 320
  %28 = icmp eq ptr %26, %27
  br i1 %28, label %_ZN4llvm16itanium_demangle14PODSmallVectorIPNS0_4NodeELm32EED2Ev.exit.i, label %29

29:                                               ; preds = %_ZN4llvm16itanium_demangle14PODSmallVectorIPNS0_4NodeELm8EED2Ev.exit.i
  tail call void @free(ptr noundef %26) #20
  br label %_ZN4llvm16itanium_demangle14PODSmallVectorIPNS0_4NodeELm32EED2Ev.exit.i

_ZN4llvm16itanium_demangle14PODSmallVectorIPNS0_4NodeELm32EED2Ev.exit.i: ; preds = %29, %_ZN4llvm16itanium_demangle14PODSmallVectorIPNS0_4NodeELm8EED2Ev.exit.i
  %30 = getelementptr inbounds nuw i8, ptr %0, i64 16
  %31 = load ptr, ptr %30, align 16
  %32 = getelementptr inbounds i8, ptr %0, i64 40
  %33 = icmp eq ptr %31, %32
  br i1 %33, label %_ZN4llvm16itanium_demangle22AbstractManglingParserINS0_14ManglingParserIN12_GLOBAL__N_116DefaultAllocatorEEES4_ED2Ev.exit, label %34

34:                                               ; preds = %_ZN4llvm16itanium_demangle14PODSmallVectorIPNS0_4NodeELm32EED2Ev.exit.i
  tail call void @free(ptr noundef %31) #20
  br label %_ZN4llvm16itanium_demangle22AbstractManglingParserINS0_14ManglingParserIN12_GLOBAL__N_116DefaultAllocatorEEES4_ED2Ev.exit

_ZN4llvm16itanium_demangle22AbstractManglingParserINS0_14ManglingParserIN12_GLOBAL__N_116DefaultAllocatorEEES4_ED2Ev.exit: ; preds = %_ZN4llvm16itanium_demangle14PODSmallVectorIPNS0_4NodeELm32EED2Ev.exit.i, %34
  ret void
}